; Function Attrs: null_pointer_is_valid sspstrong uwtable
define internal noundef zeroext i1 @logcat_text_seek_read(ptr noundef readonly captures(none) %0, i64 noundef %1, ptr noundef %2, ptr noundef %3, ptr readnone captures(none) %4) #0 {
  %6 = getelementptr inbounds nuw i8, ptr %0, i64 8
  %7 = load ptr, ptr %6, align 8
  %8 = tail call i64 @file_seek(ptr noundef %7, i64 noundef %1, i32 noundef 0, ptr noundef %3)
  %9 = icmp eq i64 %8, -1
  br i1 %9, label %19, label %10

10:                                               ; preds = %5
  %11 = load ptr, ptr %6, align 8
  %12 = getelementptr inbounds nuw i8, ptr %0, i64 20
  %13 = load i32, ptr %12, align 4
  %14 = tail call fastcc zeroext i1 @logcat_text_read_packet(ptr noundef %11, ptr noundef %2, i32 noundef %13)
  br i1 %14, label %19, label %15

15:                                               ; preds = %10
  %16 = load i32, ptr %3, align 4
  %17 = icmp eq i32 %16, 0
  br i1 %17, label %18, label %19

18:                                               ; preds = %15
  store i32 -12, ptr %3, align 4
  br label %19

19:                                               ; preds = %10, %15, %18, %5
  %.0 = phi i1 [ false, %5 ], [ false, %18 ], [ false, %15 ], [ true, %10 ]
  ret i1 %.0
}